; Function Attrs: mustprogress uwtable
define noundef i64 @_ZN6casadi10DaeBuilder16add_variable_newERKNSt7__cxx1112basic_stringIcSt11char_traitsIcESaIcEEERKNS_8SparsityE(ptr noundef nonnull align 8 dereferenceable(8) %0, ptr noundef nonnull align 8 dereferenceable(32) %1, ptr noundef nonnull align 8 dereferenceable(8) %2) local_unnamed_addr #4 align 2 personality ptr @__gxx_personality_v0 {
  %4 = alloca %"class.casadi::MX", align 8
  %5 = tail call noundef nonnull align 8 dereferenceable(408) ptr @_ZN6casadi10DaeBuilder12new_variableERKNSt7__cxx1112basic_stringIcSt11char_traitsIcESaIcEEEx(ptr noundef nonnull align 8 dereferenceable(8) %0, ptr noundef nonnull align 8 dereferenceable(32) %1, i64 noundef 1)
  call void @llvm.lifetime.start.p0(i64 8, ptr nonnull %4) #28
  call void @_ZN6casadi2MX4_symERKNSt7__cxx1112basic_stringIcSt11char_traitsIcESaIcEEERKNS_8SparsityE(ptr dead_on_unwind nonnull writable sret(%"class.casadi::MX") align 8 %4, ptr noundef nonnull align 8 dereferenceable(32) %1, ptr noundef nonnull align 8 dereferenceable(8) %2)
  %6 = getelementptr inbounds nuw i8, ptr %5, i64 384
  %7 = invoke noundef nonnull align 8 dereferenceable(8) ptr @_ZN6casadi13GenericSharedINS_12SharedObjectENS_20SharedObjectInternalEEaSERKS3_(ptr noundef nonnull align 8 dereferenceable(8) %6, ptr noundef nonnull align 8 dereferenceable(8) %4)
          to label %_ZN6casadi2MXaSERKS0_.exit unwind label %9

_ZN6casadi2MXaSERKS0_.exit:                       ; preds = %3
  call void @_ZN6casadi2MXD1Ev(ptr noundef nonnull align 8 dereferenceable(8) %4) #28
  call void @llvm.lifetime.end.p0(i64 8, ptr nonnull %4) #28
  %8 = load i64, ptr %5, align 8, !tbaa !110
  ret i64 %8

9:                                                ; preds = %3
  %10 = landingpad { ptr, i32 }
          cleanup
  call void @_ZN6casadi2MXD1Ev(ptr noundef nonnull align 8 dereferenceable(8) %4) #28
  call void @llvm.lifetime.end.p0(i64 8, ptr nonnull %4) #28
  resume { ptr, i32 } %10
}